target datalayout = "e-m:e-p270:32:32-p271:32:32-p272:64:64-i64:64-i128:128-f80:128-n8:16:32:64-S128"
target triple = "x86_64-pc-linux-gnu"

%struct.KINMemRec = type { ptr, double, ptr, ptr, double, double, i32, i64, i64, i64, i64, i32, i32, i32, i32, i32, i32, i32, i32, double, double, double, double, double, double, double, double, double, i32, double, i64, i64, i64, i64, i64, i64, i64, ptr, ptr, ptr, ptr, ptr, ptr, ptr, ptr, ptr, ptr, ptr, i32, i32, double, ptr, ptr, ptr, ptr, ptr, double, ptr, ptr, ptr, ptr, i64, i64, i32, ptr, ptr, i32, ptr, ptr, i64, i64, i64, i64, ptr, ptr, ptr, ptr, i32, ptr, double, double, double, double, double, i32, double, double, double, i32 }

@.str = private unnamed_addr constant [118 x i8] c"generated/home/dtcxzyw/WorkSpace/Projects/compilers/llvm-opt-benchmark/bench/sundials/sundials/src/kinsol/kinsol_io.c\00", align 1
@.str.1 = private unnamed_addr constant [27 x i8] c"kinsol_mem = NULL illegal.\00", align 1
@__func__.KINSetMaxSetupCalls = private unnamed_addr constant [20 x i8] c"KINSetMaxSetupCalls\00", align 1
@.str.7 = private unnamed_addr constant [20 x i8] c"Illegal msbset < 0.\00", align 1

; Function Attrs: nounwind uwtable
define i32 @KINSetMaxSetupCalls(ptr noundef %0, i64 noundef %1) #0 {
  %3 = alloca i32, align 4
  %4 = alloca ptr, align 8
  %5 = alloca i64, align 8
  %6 = alloca ptr, align 8
  %7 = alloca i32, align 4
  store ptr %0, ptr %4, align 8, !tbaa !3
  store i64 %1, ptr %5, align 8, !tbaa !23
  call void @llvm.lifetime.start.p0(i64 8, ptr %6) #5
  %8 = load ptr, ptr %4, align 8, !tbaa !3
  %9 = icmp eq ptr %8, null
  br i1 %9, label %10, label %11

10:                                               ; preds = %2
  call void (ptr, i32, i32, ptr, ptr, ptr, ...) @KINProcessError(ptr noundef null, i32 noundef -1, i32 noundef 353, ptr noundef @__func__.KINSetMaxSetupCalls, ptr noundef @.str, ptr noundef @.str.1)
  store i32 -1, ptr %3, align 4
  store i32 1, ptr %7, align 4
  br label %28

11:                                               ; preds = %2
  %12 = load ptr, ptr %4, align 8, !tbaa !3
  store ptr %12, ptr %6, align 8, !tbaa !7
  %13 = load i64, ptr %5, align 8, !tbaa !23
  %14 = icmp slt i64 %13, 0
  br i1 %14, label %15, label %17

15:                                               ; preds = %11
  %16 = load ptr, ptr %6, align 8, !tbaa !7
  call void (ptr, i32, i32, ptr, ptr, ptr, ...) @KINProcessError(ptr noundef %16, i32 noundef -2, i32 noundef 361, ptr noundef @__func__.KINSetMaxSetupCalls, ptr noundef @.str, ptr noundef @.str.7)
  store i32 -2, ptr %3, align 4
  store i32 1, ptr %7, align 4
  br label %28

17:                                               ; preds = %11
  %18 = load i64, ptr %5, align 8, !tbaa !23
  %19 = icmp eq i64 %18, 0
  br i1 %19, label %20, label %23

20:                                               ; preds = %17
  %21 = load ptr, ptr %6, align 8, !tbaa !7
  %22 = getelementptr inbounds nuw %struct.KINMemRec, ptr %21, i32 0, i32 8
  store i64 10, ptr %22, align 8, !tbaa !34
  br label %27

23:                                               ; preds = %17
  %24 = load i64, ptr %5, align 8, !tbaa !23
  %25 = load ptr, ptr %6, align 8, !tbaa !7
  %26 = getelementptr inbounds nuw %struct.KINMemRec, ptr %25, i32 0, i32 8
  store i64 %24, ptr %26, align 8, !tbaa !34
  br label %27

27:                                               ; preds = %23, %20
  store i32 0, ptr %3, align 4
  store i32 1, ptr %7, align 4
  br label %28

28:                                               ; preds = %27, %15, %10
  call void @llvm.lifetime.end.p0(i64 8, ptr %6) #5
  %29 = load i32, ptr %3, align 4
  ret i32 %29
}